target datalayout = "e-m:e-p270:32:32-p271:32:32-p272:64:64-i64:64-i128:128-f80:128-n8:16:32:64-S128"
target triple = "x86_64-pc-linux-gnu"

%struct.SDL_VideoDisplay = type { i32, ptr, i32, i32, ptr, %struct.SDL_DisplayMode, ptr, i32, i32, float, %struct.SDL_HDROutputProperties, i8, ptr, ptr, i32, ptr }
%struct.SDL_DisplayMode = type { i32, i32, i32, i32, float, float, i32, i32, ptr }
%struct.SDL_HDROutputProperties = type { float, float }
%struct.SDL_DisplayData = type { ptr, ptr, ptr, ptr, ptr, double, i32, i32, i32, i32, i32, i32, i32, i32, i32, i32, i32, i32, i8, i8, i8, %struct.SDL_HDROutputProperties, i32, %struct.SDL_VideoDisplay, i32, ptr }

; Function Attrs: nounwind uwtable
define internal i32 @Wayland_DisplayPositionCompare(ptr noundef %0, ptr noundef %1) #0 {
  %3 = alloca i32, align 4
  %4 = alloca ptr, align 8
  %5 = alloca ptr, align 8
  %6 = alloca ptr, align 8
  %7 = alloca ptr, align 8
  %8 = alloca i8, align 1
  %9 = alloca i8, align 1
  %10 = alloca i32, align 4
  store ptr %0, ptr %4, align 8
  store ptr %1, ptr %5, align 8
  call void @llvm.lifetime.start.p0(i64 8, ptr %6) #8
  %11 = load ptr, ptr %4, align 8
  %12 = load ptr, ptr %11, align 8
  store ptr %12, ptr %6, align 8
  call void @llvm.lifetime.start.p0(i64 8, ptr %7) #8
  %13 = load ptr, ptr %5, align 8
  %14 = load ptr, ptr %13, align 8
  store ptr %14, ptr %7, align 8
  call void @llvm.lifetime.start.p0(i64 1, ptr %8) #8
  %15 = load ptr, ptr %6, align 8
  %16 = getelementptr inbounds nuw %struct.SDL_DisplayData, ptr %15, i32 0, i32 11
  %17 = load i32, ptr %16, align 4
  %18 = icmp eq i32 %17, 0
  br i1 %18, label %19, label %24

19:                                               ; preds = %2
  %20 = load ptr, ptr %6, align 8
  %21 = getelementptr inbounds nuw %struct.SDL_DisplayData, ptr %20, i32 0, i32 12
  %22 = load i32, ptr %21, align 8
  %23 = icmp eq i32 %22, 0
  br label %24

24:                                               ; preds = %19, %2
  %25 = phi i1 [ false, %2 ], [ %23, %19 ]
  %26 = zext i1 %25 to i8
  store i8 %26, ptr %8, align 1
  call void @llvm.lifetime.start.p0(i64 1, ptr %9) #8
  %27 = load ptr, ptr %7, align 8
  %28 = getelementptr inbounds nuw %struct.SDL_DisplayData, ptr %27, i32 0, i32 11
  %29 = load i32, ptr %28, align 4
  %30 = icmp eq i32 %29, 0
  br i1 %30, label %31, label %36

31:                                               ; preds = %24
  %32 = load ptr, ptr %7, align 8
  %33 = getelementptr inbounds nuw %struct.SDL_DisplayData, ptr %32, i32 0, i32 12
  %34 = load i32, ptr %33, align 8
  %35 = icmp eq i32 %34, 0
  br label %36

36:                                               ; preds = %31, %24
  %37 = phi i1 [ false, %24 ], [ %35, %31 ]
  %38 = zext i1 %37 to i8
  store i8 %38, ptr %9, align 1
  %39 = load i8, ptr %8, align 1, !range !5, !noundef !6
  %40 = trunc i8 %39 to i1
  br i1 %40, label %41, label %45

41:                                               ; preds = %36
  %42 = load i8, ptr %9, align 1, !range !5, !noundef !6
  %43 = trunc i8 %42 to i1
  br i1 %43, label %45, label %44

44:                                               ; preds = %41
  store i32 -1, ptr %3, align 4
  store i32 1, ptr %10, align 4
  br label %107

45:                                               ; preds = %41, %36
  %46 = load i8, ptr %9, align 1, !range !5, !noundef !6
  %47 = trunc i8 %46 to i1
  br i1 %47, label %48, label %52

48:                                               ; preds = %45
  %49 = load i8, ptr %8, align 1, !range !5, !noundef !6
  %50 = trunc i8 %49 to i1
  br i1 %50, label %52, label %51

51:                                               ; preds = %48
  store i32 1, ptr %3, align 4
  store i32 1, ptr %10, align 4
  br label %107

52:                                               ; preds = %48, %45
  %53 = load ptr, ptr %6, align 8
  %54 = getelementptr inbounds nuw %struct.SDL_DisplayData, ptr %53, i32 0, i32 11
  %55 = load i32, ptr %54, align 4
  %56 = load ptr, ptr %7, align 8
  %57 = getelementptr inbounds nuw %struct.SDL_DisplayData, ptr %56, i32 0, i32 11
  %58 = load i32, ptr %57, align 4
  %59 = icmp slt i32 %55, %58
  br i1 %59, label %60, label %61

60:                                               ; preds = %52
  store i32 -1, ptr %3, align 4
  store i32 1, ptr %10, align 4
  br label %107

61:                                               ; preds = %52
  %62 = load ptr, ptr %6, align 8
  %63 = getelementptr inbounds nuw %struct.SDL_DisplayData, ptr %62, i32 0, i32 11
  %64 = load i32, ptr %63, align 4
  %65 = load ptr, ptr %7, align 8
  %66 = getelementptr inbounds nuw %struct.SDL_DisplayData, ptr %65, i32 0, i32 11
  %67 = load i32, ptr %66, align 4
  %68 = icmp sgt i32 %64, %67
  br i1 %68, label %69, label %70

69:                                               ; preds = %61
  store i32 1, ptr %3, align 4
  store i32 1, ptr %10, align 4
  br label %107

70:                                               ; preds = %61
  %71 = load ptr, ptr %6, align 8
  %72 = getelementptr inbounds nuw %struct.SDL_DisplayData, ptr %71, i32 0, i32 12
  %73 = load i32, ptr %72, align 8
  %74 = load ptr, ptr %7, align 8
  %75 = getelementptr inbounds nuw %struct.SDL_DisplayData, ptr %74, i32 0, i32 12
  %76 = load i32, ptr %75, align 8
  %77 = icmp slt i32 %73, %76
  br i1 %77, label %78, label %79

78:                                               ; preds = %70
  store i32 -1, ptr %3, align 4
  store i32 1, ptr %10, align 4
  br label %107

79:                                               ; preds = %70
  %80 = load ptr, ptr %6, align 8
  %81 = getelementptr inbounds nuw %struct.SDL_DisplayData, ptr %80, i32 0, i32 12
  %82 = load i32, ptr %81, align 8
  %83 = load ptr, ptr %7, align 8
  %84 = getelementptr inbounds nuw %struct.SDL_DisplayData, ptr %83, i32 0, i32 12
  %85 = load i32, ptr %84, align 8
  %86 = icmp sgt i32 %82, %85
  br i1 %86, label %87, label %88

87:                                               ; preds = %79
  store i32 1, ptr %3, align 4
  store i32 1, ptr %10, align 4
  br label %107

88:                                               ; preds = %79
  %89 = load ptr, ptr %6, align 8
  %90 = getelementptr inbounds nuw %struct.SDL_DisplayData, ptr %89, i32 0, i32 4
  %91 = load ptr, ptr %90, align 8
  %92 = icmp ne ptr %91, null
  br i1 %92, label %93, label %106

93:                                               ; preds = %88
  %94 = load ptr, ptr %7, align 8
  %95 = getelementptr inbounds nuw %struct.SDL_DisplayData, ptr %94, i32 0, i32 4
  %96 = load ptr, ptr %95, align 8
  %97 = icmp ne ptr %96, null
  br i1 %97, label %98, label %106

98:                                               ; preds = %93
  %99 = load ptr, ptr %6, align 8
  %100 = getelementptr inbounds nuw %struct.SDL_DisplayData, ptr %99, i32 0, i32 4
  %101 = load ptr, ptr %100, align 8
  %102 = load ptr, ptr %7, align 8
  %103 = getelementptr inbounds nuw %struct.SDL_DisplayData, ptr %102, i32 0, i32 4
  %104 = load ptr, ptr %103, align 8
  %105 = call i32 @SDL_strcmp_REAL(ptr noundef %101, ptr noundef %104)
  store i32 %105, ptr %3, align 4
  store i32 1, ptr %10, align 4
  br label %107

106:                                              ; preds = %93, %88
  store i32 0, ptr %3, align 4
  store i32 1, ptr %10, align 4
  br label %107

107:                                              ; preds = %106, %98, %87, %78, %69, %60, %51, %44
  call void @llvm.lifetime.end.p0(i64 1, ptr %9) #8
  call void @llvm.lifetime.end.p0(i64 1, ptr %8) #8
  call void @llvm.lifetime.end.p0(i64 8, ptr %7) #8
  call void @llvm.lifetime.end.p0(i64 8, ptr %6) #8
  %108 = load i32, ptr %3, align 4
  ret i32 %108
}