; Function Attrs: nounwind uwtable
define internal i32 @Wayland_DisplayPositionCompare(ptr noundef readonly captures(none) %0, ptr noundef readonly captures(none) %1) #0 {
  %3 = load ptr, ptr %0, align 8
  %4 = load ptr, ptr %1, align 8
  %5 = getelementptr inbounds nuw i8, ptr %3, i64 68
  %6 = load i32, ptr %5, align 4
  %7 = icmp eq i32 %6, 0
  br i1 %7, label %8, label %12

8:                                                ; preds = %2
  %9 = getelementptr inbounds nuw i8, ptr %3, i64 72
  %10 = load i32, ptr %9, align 8
  %11 = icmp eq i32 %10, 0
  br label %12

12:                                               ; preds = %8, %2
  %13 = phi i1 [ false, %2 ], [ %11, %8 ]
  %14 = getelementptr inbounds nuw i8, ptr %4, i64 68
  %15 = load i32, ptr %14, align 4
  %16 = icmp eq i32 %15, 0
  br i1 %16, label %17, label %21

17:                                               ; preds = %12
  %18 = getelementptr inbounds nuw i8, ptr %4, i64 72
  %19 = load i32, ptr %18, align 8
  %20 = icmp eq i32 %19, 0
  br label %21

21:                                               ; preds = %17, %12
  %22 = phi i1 [ false, %12 ], [ %20, %17 ]
  %.not = xor i1 %13, true
  %or.cond = select i1 %.not, i1 true, i1 %22
  br i1 %or.cond, label %23, label %44

23:                                               ; preds = %21
  %.not2 = xor i1 %22, true
  %or.cond4 = select i1 %.not2, i1 true, i1 %13
  br i1 %or.cond4, label %24, label %44

24:                                               ; preds = %23
  %25 = icmp slt i32 %6, %15
  br i1 %25, label %44, label %26

26:                                               ; preds = %24
  %27 = icmp sgt i32 %6, %15
  br i1 %27, label %44, label %28

28:                                               ; preds = %26
  %29 = getelementptr inbounds nuw i8, ptr %3, i64 72
  %30 = load i32, ptr %29, align 8
  %31 = getelementptr inbounds nuw i8, ptr %4, i64 72
  %32 = load i32, ptr %31, align 8
  %33 = icmp slt i32 %30, %32
  br i1 %33, label %44, label %34

34:                                               ; preds = %28
  %35 = icmp sgt i32 %30, %32
  br i1 %35, label %44, label %36

36:                                               ; preds = %34
  %37 = getelementptr inbounds nuw i8, ptr %3, i64 32
  %38 = load ptr, ptr %37, align 8
  %.not32 = icmp eq ptr %38, null
  br i1 %.not32, label %44, label %39

39:                                               ; preds = %36
  %40 = getelementptr inbounds nuw i8, ptr %4, i64 32
  %41 = load ptr, ptr %40, align 8
  %.not33 = icmp eq ptr %41, null
  br i1 %.not33, label %44, label %42

42:                                               ; preds = %39
  %43 = tail call i32 @SDL_strcmp_REAL(ptr noundef nonnull %38, ptr noundef nonnull %41) #12
  br label %44

44:                                               ; preds = %36, %39, %34, %28, %26, %24, %23, %21, %42
  %.0 = phi i32 [ %43, %42 ], [ -1, %21 ], [ 1, %23 ], [ -1, %24 ], [ 1, %26 ], [ -1, %28 ], [ 1, %34 ], [ 0, %39 ], [ 0, %36 ]
  ret i32 %.0
}